target datalayout = "e-m:e-p270:32:32-p271:32:32-p272:64:64-i64:64-i128:128-f80:128-n8:16:32:64-S128"
target triple = "x86_64-pc-linux-gnu"

@H5FD_init_g = external global i8, align 1
@H5_libterm_g = external global i8, align 1
@.str = private unnamed_addr constant [101 x i8] c"generated/home/dtcxzyw/WorkSpace/Projects/compilers/llvm-opt-benchmark/bench/hdf5/hdf5/src/H5FDint.c\00", align 1
@H5E_CANTINIT_g = external global i64, align 8
@H5E_FUNC_g = external global i64, align 8
@.str.6 = private unnamed_addr constant [32 x i8] c"interface initialization failed\00", align 1
@H5E_VFL_g = external global i64, align 8
@H5E_READERROR_g = external global i64, align 8
@__func__.H5FD_read_vector_from_selection = private unnamed_addr constant [32 x i8] c"H5FD_read_vector_from_selection\00", align 1
@.str.26 = private unnamed_addr constant [35 x i8] c"file selection read request failed\00", align 1

; Function Attrs: nounwind uwtable
define i32 @H5FD_read_vector_from_selection(ptr noundef %0, i32 noundef %1, i32 noundef %2, ptr noundef %3, ptr noundef %4, ptr noundef %5, ptr noundef %6, ptr noundef %7) #0 {
  %9 = alloca ptr, align 8
  %10 = alloca i32, align 4
  %11 = alloca i32, align 4
  %12 = alloca ptr, align 8
  %13 = alloca ptr, align 8
  %14 = alloca ptr, align 8
  %15 = alloca ptr, align 8
  %16 = alloca ptr, align 8
  %17 = alloca i32, align 4
  %18 = alloca i8, align 1
  store ptr %0, ptr %9, align 8, !tbaa !3
  store i32 %1, ptr %10, align 4, !tbaa !12
  store i32 %2, ptr %11, align 4, !tbaa !12
  store ptr %3, ptr %12, align 8, !tbaa !8
  store ptr %4, ptr %13, align 8, !tbaa !8
  store ptr %5, ptr %14, align 8, !tbaa !8
  store ptr %6, ptr %15, align 8, !tbaa !8
  store ptr %7, ptr %16, align 8, !tbaa !31
  call void @llvm.lifetime.start.p0(i64 4, ptr %17) #8
  store i32 0, ptr %17, align 4, !tbaa !12
  call void @llvm.lifetime.start.p0(i64 1, ptr %18) #8
  store i8 0, ptr %18, align 1, !tbaa !14
  %19 = load i8, ptr @H5FD_init_g, align 1, !tbaa !14, !range !16, !noundef !17
  %20 = trunc i8 %19 to i1
  br i1 %20, label %25, label %21

21:                                               ; preds = %8
  %22 = load i8, ptr @H5_libterm_g, align 1, !tbaa !14, !range !16, !noundef !17
  %23 = trunc i8 %22 to i1
  %24 = xor i1 %23, true
  br label %25

25:                                               ; preds = %21, %8
  %26 = phi i1 [ false, %8 ], [ %24, %21 ]
  %27 = xor i1 %26, true
  %28 = xor i1 %27, true
  %29 = zext i1 %28 to i32
  %30 = sext i32 %29 to i64
  %31 = call i64 @llvm.expect.i64(i64 %30, i64 0)
  %32 = icmp ne i64 %31, 0
  br i1 %32, label %33, label %56

33:                                               ; preds = %25
  store i8 1, ptr @H5FD_init_g, align 1, !tbaa !14
  %34 = call i32 @H5FD__init_package()
  %35 = icmp slt i32 %34, 0
  br i1 %35, label %36, label %55

36:                                               ; preds = %33
  store i8 0, ptr @H5FD_init_g, align 1, !tbaa !14
  br label %37

37:                                               ; preds = %36
  br label %38

38:                                               ; preds = %37
  br label %39

39:                                               ; preds = %38
  %40 = load i64, ptr @H5E_FUNC_g, align 8, !tbaa !10
  %41 = load i64, ptr @H5E_CANTINIT_g, align 8, !tbaa !10
  %42 = call i32 (ptr, ptr, i32, i64, i64, ptr, ...) @H5E_printf_stack(ptr noundef @.str, ptr noundef @__func__.H5FD_read_vector_from_selection, i32 noundef 2214, i64 noundef %40, i64 noundef %41, ptr noundef @.str.6)
  br label %43

43:                                               ; preds = %39
  br label %44

44:                                               ; preds = %43
  store i8 1, ptr %18, align 1, !tbaa !14
  %45 = load i8, ptr %18, align 1, !tbaa !14, !range !16, !noundef !17
  %46 = trunc i8 %45 to i1
  %47 = zext i1 %46 to i8
  store i8 %47, ptr %18, align 1, !tbaa !14
  br label %48

48:                                               ; preds = %44
  br label %49

49:                                               ; preds = %48
  br label %50

50:                                               ; preds = %49
  store i32 -1, ptr %17, align 4, !tbaa !12
  br label %102

51:                                               ; No predecessors!
  br label %52

52:                                               ; preds = %51
  br label %53

53:                                               ; preds = %52
  br label %54

54:                                               ; preds = %53
  br label %55

55:                                               ; preds = %54, %33
  br label %56

56:                                               ; preds = %55, %25
  %57 = load i8, ptr @H5FD_init_g, align 1, !tbaa !14, !range !16, !noundef !17
  %58 = trunc i8 %57 to i1
  br i1 %58, label %63, label %59

59:                                               ; preds = %56
  %60 = load i8, ptr @H5_libterm_g, align 1, !tbaa !14, !range !16, !noundef !17
  %61 = trunc i8 %60 to i1
  %62 = xor i1 %61, true
  br label %63

63:                                               ; preds = %59, %56
  %64 = phi i1 [ true, %56 ], [ %62, %59 ]
  %65 = xor i1 %64, true
  %66 = xor i1 %65, true
  %67 = zext i1 %66 to i32
  %68 = sext i32 %67 to i64
  %69 = call i64 @llvm.expect.i64(i64 %68, i64 1)
  %70 = icmp ne i64 %69, 0
  br i1 %70, label %71, label %103

71:                                               ; preds = %63
  %72 = load ptr, ptr %9, align 8, !tbaa !3
  %73 = load i32, ptr %10, align 4, !tbaa !12
  %74 = load i32, ptr %11, align 4, !tbaa !12
  %75 = load ptr, ptr %12, align 8, !tbaa !8
  %76 = load ptr, ptr %13, align 8, !tbaa !8
  %77 = load ptr, ptr %14, align 8, !tbaa !8
  %78 = load ptr, ptr %15, align 8, !tbaa !8
  %79 = load ptr, ptr %16, align 8, !tbaa !31
  %80 = call i32 @H5FD_read_selection_id(i32 noundef 1, ptr noundef %72, i32 noundef %73, i32 noundef %74, ptr noundef %75, ptr noundef %76, ptr noundef %77, ptr noundef %78, ptr noundef %79)
  %81 = icmp slt i32 %80, 0
  br i1 %81, label %82, label %101

82:                                               ; preds = %71
  br label %83

83:                                               ; preds = %82
  br label %84

84:                                               ; preds = %83
  br label %85

85:                                               ; preds = %84
  %86 = load i64, ptr @H5E_VFL_g, align 8, !tbaa !10
  %87 = load i64, ptr @H5E_READERROR_g, align 8, !tbaa !10
  %88 = call i32 (ptr, ptr, i32, i64, i64, ptr, ...) @H5E_printf_stack(ptr noundef @.str, ptr noundef @__func__.H5FD_read_vector_from_selection, i32 noundef 2234, i64 noundef %86, i64 noundef %87, ptr noundef @.str.26)
  br label %89

89:                                               ; preds = %85
  br label %90

90:                                               ; preds = %89
  store i8 1, ptr %18, align 1, !tbaa !14
  %91 = load i8, ptr %18, align 1, !tbaa !14, !range !16, !noundef !17
  %92 = trunc i8 %91 to i1
  %93 = zext i1 %92 to i8
  store i8 %93, ptr %18, align 1, !tbaa !14
  br label %94

94:                                               ; preds = %90
  br label %95

95:                                               ; preds = %94
  br label %96

96:                                               ; preds = %95
  store i32 -1, ptr %17, align 4, !tbaa !12
  br label %102

97:                                               ; No predecessors!
  br label %98

98:                                               ; preds = %97
  br label %99

99:                                               ; preds = %98
  br label %100

100:                                              ; preds = %99
  br label %101

101:                                              ; preds = %100, %71
  br label %102

102:                                              ; preds = %101, %96, %50
  br label %103

103:                                              ; preds = %102, %63
  %104 = load i32, ptr %17, align 4, !tbaa !12
  call void @llvm.lifetime.end.p0(i64 1, ptr %18) #8
  call void @llvm.lifetime.end.p0(i64 4, ptr %17) #8
  ret i32 %104
}